target datalayout = "e-m:e-p270:32:32-p271:32:32-p272:64:64-i64:64-i128:128-f80:128-n8:16:32:64-S128"
target triple = "x86_64-unknown-linux-gnu"

%struct.rcu_head = type { ptr, ptr }
%struct.QTailQLink = type { ptr, ptr }
%struct.ObjectClass = type { ptr, ptr, [4 x ptr], [4 x ptr], ptr, ptr }
%struct.BusState = type { %struct.Object, ptr, ptr, ptr, i32, i8, i8, i32, %union.BusChildHead, %struct.BusStateEntry, %struct.ResettableState }
%struct.Object = type { ptr, ptr, ptr, i32, ptr }
%union.BusChildHead = type { %struct.QTailQLink }
%struct.BusStateEntry = type { ptr, ptr }
%struct.ResettableState = type { i32, i8, i8 }
%struct.VirtioDeviceClass = type { %struct.DeviceClass, ptr, ptr, ptr, ptr, ptr, ptr, ptr, ptr, ptr, ptr, ptr, ptr, i64, ptr, ptr, ptr, ptr, ptr, ptr, ptr, ptr, ptr, ptr, ptr }
%struct.DeviceClass = type { %struct.ObjectClass, [1 x i64], ptr, ptr, ptr, i8, i8, ptr, ptr, ptr, ptr, ptr }
%struct.VirtioBusState = type { %struct.BusState, i8, i32 }
%struct.BusChild = type { %struct.rcu_head, ptr, i32, %union.anon.4 }
%union.anon.4 = type { %struct.QTailQLink }

@.str.13 = private unnamed_addr constant [14 x i8] c"virtio-device\00", align 1
@.str.14 = private unnamed_addr constant [105 x i8] c"/home/dtcxzyw/WorkSpace/Projects/compilers/llvm-opt-benchmark/bench/qemu/qemu/include/hw/virtio/virtio.h\00", align 1
@__func__.VIRTIO_DEVICE_GET_CLASS = private unnamed_addr constant [24 x i8] c"VIRTIO_DEVICE_GET_CLASS\00", align 1

; Function Attrs: nounwind sspstrong uwtable
define internal ptr @VIRTIO_DEVICE_GET_CLASS(ptr noundef %obj) #0 {
entry:
  %obj.addr = alloca ptr, align 8
  store ptr %obj, ptr %obj.addr, align 8
  %0 = load ptr, ptr %obj.addr, align 8
  %call = call ptr @object_get_class(ptr noundef %0)
  %call1 = call ptr @object_class_dynamic_cast_assert(ptr noundef %call, ptr noundef @.str.13, ptr noundef @.str.14, i32 noundef 85, ptr noundef @__func__.VIRTIO_DEVICE_GET_CLASS)
  ret ptr %call1
}

; Function Attrs: nounwind sspstrong uwtable
define dso_local void @virtio_bus_stop_ioeventfd(ptr noundef %bus) #0 {
entry:
  %bus.addr = alloca ptr, align 8
  %vdev = alloca ptr, align 8
  %vdc = alloca ptr, align 8
  store ptr %bus, ptr %bus.addr, align 8
  %0 = load ptr, ptr %bus.addr, align 8
  %ioeventfd_started = getelementptr inbounds %struct.VirtioBusState, ptr %0, i32 0, i32 1
  %1 = load i8, ptr %ioeventfd_started, align 8
  %tobool = trunc i8 %1 to i1
  br i1 %tobool, label %if.end, label %if.then

if.then:                                          ; preds = %entry
  br label %return

if.end:                                           ; preds = %entry
  %2 = load ptr, ptr %bus.addr, align 8
  %ioeventfd_grabbed = getelementptr inbounds %struct.VirtioBusState, ptr %2, i32 0, i32 2
  %3 = load i32, ptr %ioeventfd_grabbed, align 4
  %tobool1 = icmp ne i32 %3, 0
  br i1 %tobool1, label %if.end4, label %if.then2

if.then2:                                         ; preds = %if.end
  %4 = load ptr, ptr %bus.addr, align 8
  %call = call ptr @virtio_bus_get_device(ptr noundef %4)
  store ptr %call, ptr %vdev, align 8
  %5 = load ptr, ptr %vdev, align 8
  %call3 = call ptr @VIRTIO_DEVICE_GET_CLASS(ptr noundef %5)
  store ptr %call3, ptr %vdc, align 8
  %6 = load ptr, ptr %vdc, align 8
  %stop_ioeventfd = getelementptr inbounds %struct.VirtioDeviceClass, ptr %6, i32 0, i32 17
  %7 = load ptr, ptr %stop_ioeventfd, align 8
  %8 = load ptr, ptr %vdev, align 8
  call void %7(ptr noundef %8)
  br label %if.end4

if.end4:                                          ; preds = %if.then2, %if.end
  %9 = load ptr, ptr %bus.addr, align 8
  %ioeventfd_started5 = getelementptr inbounds %struct.VirtioBusState, ptr %9, i32 0, i32 1
  store i8 0, ptr %ioeventfd_started5, align 8
  br label %return

return:                                           ; preds = %if.end4, %if.then
  ret void
}

; Function Attrs: nounwind sspstrong uwtable
define internal ptr @virtio_bus_get_device(ptr noundef %bus) #0 {
entry:
  %bus.addr = alloca ptr, align 8
  %qbus = alloca ptr, align 8
  %kid = alloca ptr, align 8
  %qdev = alloca ptr, align 8
  store ptr %bus, ptr %bus.addr, align 8
  %0 = load ptr, ptr %bus.addr, align 8
  %parent_obj = getelementptr inbounds %struct.VirtioBusState, ptr %0, i32 0, i32 0
  store ptr %parent_obj, ptr %qbus, align 8
  %1 = load ptr, ptr %qbus, align 8
  %children = getelementptr inbounds %struct.BusState, ptr %1, i32 0, i32 8
  %2 = load ptr, ptr %children, align 8
  store ptr %2, ptr %kid, align 8
  %3 = load ptr, ptr %kid, align 8
  %tobool = icmp ne ptr %3, null
  br i1 %tobool, label %cond.true, label %cond.false

cond.true:                                        ; preds = %entry
  %4 = load ptr, ptr %kid, align 8
  %child = getelementptr inbounds %struct.BusChild, ptr %4, i32 0, i32 1
  %5 = load ptr, ptr %child, align 8
  br label %cond.end

cond.false:                                       ; preds = %entry
  br label %cond.end

cond.end:                                         ; preds = %cond.false, %cond.true
  %cond = phi ptr [ %5, %cond.true ], [ null, %cond.false ]
  store ptr %cond, ptr %qdev, align 8
  %6 = load ptr, ptr %qdev, align 8
  ret ptr %6
}

; Function Attrs: nounwind sspstrong uwtable
define dso_local void @virtio_bus_reset(ptr noundef %bus) #0 {
entry:
  %bus.addr = alloca ptr, align 8
  %vdev = alloca ptr, align 8
  store ptr %bus, ptr %bus.addr, align 8
  %0 = load ptr, ptr %bus.addr, align 8
  %call = call ptr @virtio_bus_get_device(ptr noundef %0)
  store ptr %call, ptr %vdev, align 8
  br label %do.body

do.body:                                          ; preds = %entry
  br label %do.end

do.end:                                           ; preds = %do.body
  %1 = load ptr, ptr %bus.addr, align 8
  call void @virtio_bus_stop_ioeventfd(ptr noundef %1)
  %2 = load ptr, ptr %vdev, align 8
  %cmp = icmp ne ptr %2, null
  br i1 %cmp, label %if.then, label %if.end

if.then:                                          ; preds = %do.end
  %3 = load ptr, ptr %vdev, align 8
  call void @virtio_reset(ptr noundef %3)
  br label %if.end

if.end:                                           ; preds = %if.then, %do.end
  ret void
}