; Function Attrs: nounwind sspstrong uwtable
define dso_local void @virtio_bus_reset(ptr noundef captures(none) %bus) local_unnamed_addr #0 {
entry:
  %0 = getelementptr i8, ptr %bus, i64 80
  %bus.val = load ptr, ptr %0, align 8
  %tobool.not.i = icmp eq ptr %bus.val, null
  br i1 %tobool.not.i, label %virtio_bus_get_device.exit, label %cond.true.i

cond.true.i:                                      ; preds = %entry
  %child.i = getelementptr inbounds nuw i8, ptr %bus.val, i64 16
  %1 = load ptr, ptr %child.i, align 8
  br label %virtio_bus_get_device.exit

virtio_bus_get_device.exit:                       ; preds = %entry, %cond.true.i
  %cond.i = phi ptr [ %1, %cond.true.i ], [ null, %entry ]
  %ioeventfd_started.i = getelementptr inbounds nuw i8, ptr %bus, i64 120
  %2 = load i8, ptr %ioeventfd_started.i, align 8
  %tobool.i = trunc i8 %2 to i1
  br i1 %tobool.i, label %if.end.i, label %virtio_bus_stop_ioeventfd.exit

if.end.i:                                         ; preds = %virtio_bus_get_device.exit
  %ioeventfd_grabbed.i = getelementptr inbounds nuw i8, ptr %bus, i64 124
  %3 = load i32, ptr %ioeventfd_grabbed.i, align 4
  %tobool1.not.i = icmp eq i32 %3, 0
  br i1 %tobool1.not.i, label %if.then2.i, label %if.end4.i

if.then2.i:                                       ; preds = %if.end.i
  br i1 %tobool.not.i, label %virtio_bus_get_device.exit.i, label %cond.true.i.i

cond.true.i.i:                                    ; preds = %if.then2.i
  %child.i.i = getelementptr inbounds nuw i8, ptr %bus.val, i64 16
  %4 = load ptr, ptr %child.i.i, align 8
  br label %virtio_bus_get_device.exit.i

virtio_bus_get_device.exit.i:                     ; preds = %cond.true.i.i, %if.then2.i
  %cond.i.i = phi ptr [ %4, %cond.true.i.i ], [ null, %if.then2.i ]
  %call.i.i = tail call ptr @object_get_class(ptr noundef %cond.i.i) #5
  %call1.i.i = tail call ptr @object_class_dynamic_cast_assert(ptr noundef %call.i.i, ptr noundef nonnull @.str.13, ptr noundef nonnull @.str.14, i32 noundef 85, ptr noundef nonnull @__func__.VIRTIO_DEVICE_GET_CLASS) #5
  %stop_ioeventfd.i = getelementptr inbounds nuw i8, ptr %call1.i.i, i64 304
  %5 = load ptr, ptr %stop_ioeventfd.i, align 8
  tail call void %5(ptr noundef %cond.i.i) #5
  br label %if.end4.i

if.end4.i:                                        ; preds = %virtio_bus_get_device.exit.i, %if.end.i
  store i8 0, ptr %ioeventfd_started.i, align 8
  br label %virtio_bus_stop_ioeventfd.exit

virtio_bus_stop_ioeventfd.exit:                   ; preds = %virtio_bus_get_device.exit, %if.end4.i
  %cmp.not = icmp eq ptr %cond.i, null
  br i1 %cmp.not, label %if.end, label %if.then

if.then:                                          ; preds = %virtio_bus_stop_ioeventfd.exit
  tail call void @virtio_reset(ptr noundef nonnull %cond.i) #5
  br label %if.end

if.end:                                           ; preds = %if.then, %virtio_bus_stop_ioeventfd.exit
  ret void
}